OCSP Request Data:
    Version: 1 (0x0)
    Requestor List:
        Certificate ID:
          Hash Algorithm: sha256
          Issuer Name Hash: 17492942FD74BDD6138B943E0C4E7810FE75C0C31C2AC630481D1E52DDFE8156
          Issuer Key Hash: F475BFE4DED80D615B268FF2479A7CC86EB492BF8758F525EA36EF90FA8FB353
          Serial Number: 01
    Request Extensions:
        OCSP Nonce: 
            041079F917BA9153FCD001FE590512A49420
OCSP Response Data:
    OCSP Response Status: successful (0x0)
    Response Type: Basic OCSP Response
    Version: 1 (0x0)
    Responder Id: CN = Intermediate, OU = Wget, O = gnuwget
    Produced At: Jul 15 08:59:59 2019 GMT
    Responses:
    Certificate ID:
      Hash Algorithm: sha256
      Issuer Name Hash: 17492942FD74BDD6138B943E0C4E7810FE75C0C31C2AC630481D1E52DDFE8156
      Issuer Key Hash: F475BFE4DED80D615B268FF2479A7CC86EB492BF8758F525EA36EF90FA8FB353
      Serial Number: 01
    Cert Status: good
    This Update: Jul 15 08:59:59 2019 GMT

    Response Extensions:
        OCSP Nonce: 
            041079F917BA9153FCD001FE590512A49420
    Signature Algorithm: sha256WithRSAEncryption
         53:2a:39:50:e3:29:0f:00:88:8c:1a:2f:63:21:bf:e3:8d:e0:
         84:8f:f0:16:e7:ce:62:91:98:e8:38:aa:eb:71:39:1d:1f:75:
         db:a3:1d:e7:86:92:7a:72:b2:1f:f1:58:11:f5:1b:4e:25:6b:
         89:51:7b:48:7b:3e:dd:90:ed:24:c3:3f:f9:78:ff:7d:3d:12:
         30:b2:5e:11:a1:ad:55:99:36:65:33:22:94:2c:69:43:03:d9:
         a1:77:13:e7:9d:1a:b7:55:b1:c7:26:7b:e0:0b:f4:93:f7:8a:
         7a:d7:27:4c:35:53:cd:56:ba:23:e5:78:eb:31:9d:21:53:3d:
         4f:a6:e4:22:c2:17:63:a7:ff:f6:b4:f9:eb:ad:99:79:a0:88:
         18:2a:f0:d2:04:f2:d6:27:02:c2:2e:e0:55:5c:36:5b:79:18:
         62:95:5d:9b:1d:67:1b:62:bd:bc:50:bf:19:c2:ba:a6:85:0d:
         bb:7c:df:ea:ef:d5:b1:a7:71:7f:cb:85:ac:44:5a:81:a9:95:
         ab:8b:f9:6c:72:4a:3b:c8:8c:9f:e3:14:97:6f:25:f7:c7:c9:
         17:30:d4:00:af:bf:b9:0e:55:e2:d8:e7:c8:0b:46:43:51:e1:
         a1:4e:7f:f9:60:c1:76:bb:21:51:ba:70:ab:52:0c:44:8d:f8:
         4a:fc:88:9a:21:e6:44:55:54:0c:f6:54:3d:88:2b:9b:d3:bd:
         54:9c:20:d4:a8:f1:2d:0a:40:48:fb:48:7c:40:18:70:5f:59:
         21:40:ec:a7:8e:3b:9b:72:fc:79:3f:3e:96:c6:93:b2:74:7f:
         f3:fb:68:57:aa:2b:72:b8:f2:22:eb:49:bf:ee:fd:54:49:5e:
         9f:95:34:3e:62:17:a4:f6:46:28:4d:c7:d2:fb:e1:49:e1:04:
         e9:71:be:93:d3:b0:63:e1:ee:13:25:bc:56:35:9e:ab:83:0e:
         c3:63:ac:ff:85:b4:f6:42:7b:86:9a:27:bf:7c:fa:63:2c:16:
         45:23:36:0a:3c:c4
Certificate:
    Data:
        Version: 3 (0x2)
        Serial Number: 6713811337613073197 (0x5d2c3fd71b6adb2d)
        Signature Algorithm: sha256WithRSAEncryption
        Issuer: CN=root, OU=Wget, O=gnuwget
        Validity
            Not Before: Jul 15 08:56:57 2019 GMT
            Not After : Dec 31 23:59:59 9999 GMT
        Subject: CN=Intermediate, OU=Wget, O=gnuwget
        Subject Public Key Info:
            Public Key Algorithm: rsaEncryption
                RSA Public-Key: (3072 bit)
                Modulus:
                    00:9d:9f:fb:99:01:3c:62:ce:80:4b:68:b6:6c:87:
                    37:09:6b:25:50:01:b1:38:af:7d:45:68:0e:aa:35:
                    b4:5e:ff:95:74:79:a2:5c:04:35:97:80:38:bd:6b:
                    d9:9c:b3:94:45:18:1f:cf:61:bd:3f:85:41:04:b5:
                    d3:20:d8:0e:27:ea:d5:ea:76:5a:9d:81:3b:8b:b6:
                    37:d2:f9:cb:6b:db:01:62:c6:50:f2:e4:74:a5:99:
                    46:ce:e9:79:66:73:5f:c3:95:7d:66:2b:9f:83:c7:
                    88:92:41:12:92:bf:2f:81:88:07:6c:8e:fb:6c:41:
                    ee:7b:4f:64:74:25:38:2f:eb:bb:4c:8f:3d:1b:69:
                    05:e4:3f:b1:52:d3:04:e9:a8:17:3b:ef:13:61:46:
                    a3:9a:89:84:3d:6d:49:7b:a1:35:63:cf:e2:34:7a:
                    25:d1:0c:66:f7:84:5e:86:0f:55:13:49:fa:11:e1:
                    c8:b7:1c:b7:a7:ef:9d:d8:b8:a5:5b:01:91:df:17:
                    3e:5a:9e:18:33:b2:0e:90:60:7a:3e:1e:0e:90:98:
                    66:cb:f8:f1:9f:05:53:68:df:9d:6e:2a:0f:d2:2a:
                    33:e0:09:c5:b9:4e:97:b1:7d:08:55:dd:c3:19:e6:
                    31:a6:db:2a:cd:18:d0:22:02:0b:5b:39:c8:57:2b:
                    d0:bf:45:ff:c2:fa:13:2a:64:d0:42:a0:e9:9a:16:
                    d1:1a:9e:ce:57:bb:6a:23:2d:1f:e4:5e:f5:4c:86:
                    6b:dc:12:7c:fc:ff:29:ad:6e:6d:2f:8a:2b:bb:8a:
                    02:d7:5d:14:7e:46:fa:51:4b:dd:9f:1a:0c:6f:3e:
                    63:78:7c:a5:81:ea:f5:a1:30:de:3f:3e:3d:da:39:
                    52:db:3a:9c:09:7e:b6:5c:db:2c:25:a2:63:a3:f3:
                    e7:c5:dc:aa:79:c5:e1:1f:d9:8e:ac:74:fd:28:13:
                    01:d2:48:cf:70:6a:d7:ee:d7:2c:50:cf:19:a8:ff:
                    3c:23:4d:8b:b6:aa:83:03:28:a7
                Exponent: 65537 (0x10001)
        X509v3 extensions:
            X509v3 Basic Constraints: critical
                CA:TRUE
            X509v3 Extended Key Usage: 
                Time Stamping, OCSP Signing, OCSP Signing, Time Stamping
            X509v3 Key Usage: critical
                Certificate Sign, CRL Sign
            X509v3 Subject Key Identifier: 
                C0:7F:29:1F:82:B1:AA:85:38:5F:75:0B:9B:16:22:9E:13:D2:3B:63
            X509v3 Authority Key Identifier: 
                keyid:49:F6:38:A3:B9:BB:3C:72:29:40:52:EE:A6:8A:60:B8:8F:EB:B4:48

    Signature Algorithm: sha256WithRSAEncryption
         5c:1f:11:66:dd:47:bf:53:82:e8:7f:14:08:ae:cb:09:95:71:
         5b:22:a1:2c:7a:95:af:7a:01:76:6d:da:3a:3d:1b:84:03:27:
         ca:89:b8:1f:64:ae:77:78:93:e6:da:8c:35:18:12:7b:35:76:
         b5:98:f4:0b:9f:08:dd:45:98:f8:44:59:64:4a:7c:56:77:7f:
         b7:9b:9e:7c:6d:22:12:3e:c3:67:82:c5:d1:46:9f:08:34:7d:
         3c:14:ca:59:ae:2c:27:71:4e:19:7f:5a:bb:eb:ab:b1:27:15:
         f1:60:c0:33:3b:0f:a6:df:f1:54:02:6c:9c:22:c6:7e:6d:b4:
         fc:6a:71:7c:e3:00:52:6a:a2:90:ed:5d:d4:96:d9:7a:db:dc:
         8d:e6:f7:14:29:7c:cf:9b:42:88:1a:75:93:3a:3e:ed:7b:d6:
         f6:7e:d4:21:a5:d6:f2:6a:97:95:cd:2e:37:48:49:24:2d:80:
         78:f4:72:f4:9f:fa:71:ba:a7:8f:fb:aa:16:24:f4:a2:a4:d9:
         34:65:00:8f:c5:ee:93:58:6a:00:cf:35:9c:51:14:c6:59:bd:
         9b:3c:22:c3:a1:c2:e4:0e:5d:e4:67:e6:d3:62:97:19:1a:75:
         a9:ca:55:ed:ef:96:aa:d0:8d:98:1f:d5:51:93:c9:a6:d0:9e:
         5e:c1:d9:91:15:53:6c:cf:13:37:2b:2e:1d:23:52:db:db:05:
         0a:e3:42:3e:a4:2d:64:f0:89:c3:12:10:f4:7d:be:a2:c4:6f:
         5b:42:01:11:0e:83:70:80:10:e5:41:91:b2:6d:97:2d:8c:0c:
         a7:2a:6c:5f:45:20:17:59:27:ea:18:dd:73:d1:47:96:31:8d:
         31:52:b7:7b:eb:a4:50:d3:f6:d1:d0:23:46:10:7b:4d:78:5a:
         f7:29:da:a6:35:fe:aa:6c:42:42:da:40:14:77:60:6c:0c:5f:
         b6:15:91:c3:ed:76:60:39:20:3a:11:52:42:f9:74:64:a5:1f:
         e7:ab:30:a8:c9:08
-----BEGIN CERTIFICATE-----
MIIEhTCCAu2gAwIBAgIIXSw/1xtq2y0wDQYJKoZIhvcNAQELBQAwMDENMAsGA1UE
AxMEcm9vdDENMAsGA1UECxMEV2dldDEQMA4GA1UEChMHZ251d2dldDAgFw0xOTA3
MTUwODU2NTdaGA85OTk5MTIzMTIzNTk1OVowODEVMBMGA1UEAxMMSW50ZXJtZWRp
YXRlMQ0wCwYDVQQLEwRXZ2V0MRAwDgYDVQQKEwdnbnV3Z2V0MIIBojANBgkqhkiG
9w0BAQEFAAOCAY8AMIIBigKCAYEAnZ/7mQE8Ys6AS2i2bIc3CWslUAGxOK99RWgO
qjW0Xv+VdHmiXAQ1l4A4vWvZnLOURRgfz2G9P4VBBLXTINgOJ+rV6nZanYE7i7Y3
0vnLa9sBYsZQ8uR0pZlGzul5ZnNfw5V9Ziufg8eIkkESkr8vgYgHbI77bEHue09k
dCU4L+u7TI89G2kF5D+xUtME6agXO+8TYUajmomEPW1Je6E1Y8/iNHol0Qxm94Re
hg9VE0n6EeHItxy3p++d2LilWwGR3xc+Wp4YM7IOkGB6Ph4OkJhmy/jxnwVTaN+d
bioP0ioz4AnFuU6XsX0IVd3DGeYxptsqzRjQIgILWznIVyvQv0X/wvoTKmTQQqDp
mhbRGp7OV7tqIy0f5F71TIZr3BJ8/P8prW5tL4oru4oC110Ufkb6UUvdnxoMbz5j
eHylger1oTDePz492jlS2zqcCX62XNssJaJjo/PnxdyqecXhH9mOrHT9KBMB0kjP
cGrX7tcsUM8ZqP88I02LtqqDAyinAgMBAAGjgZgwgZUwDwYDVR0TAQH/BAUwAwEB
/zAxBgNVHSUEKjAoBggrBgEFBQcDCAYIKwYBBQUHAwkGCCsGAQUFBwMJBggrBgEF
BQcDCDAPBgNVHQ8BAf8EBQMDBwYAMB0GA1UdDgQWBBTAfykfgrGqhThfdQubFiKe
E9I7YzAfBgNVHSMEGDAWgBRJ9jijubs8cilAUu6mimC4j+u0SDANBgkqhkiG9w0B
AQsFAAOCAYEAXB8RZt1Hv1OC6H8UCK7LCZVxWyKhLHqVr3oBdm3aOj0bhAMnyom4
H2Sud3iT5tqMNRgSezV2tZj0C58I3UWY+ERZZEp8Vnd/t5uefG0iEj7DZ4LF0Uaf
CDR9PBTKWa4sJ3FOGX9au+ursScV8WDAMzsPpt/xVAJsnCLGfm20/GpxfOMAUmqi
kO1d1JbZetvcjeb3FCl8z5tCiBp1kzo+7XvW9n7UIaXW8mqXlc0uN0hJJC2AePRy
9J/6cbqnj/uqFiT0oqTZNGUAj8Xuk1hqAM81nFEUxlm9mzwiw6HC5A5d5Gfm02KX
GRp1qcpV7e+WqtCNmB/VUZPJptCeXsHZkRVTbM8TNysuHSNS29sFCuNCPqQtZPCJ
wxIQ9H2+osRvW0IBEQ6DcIAQ5UGRsm2XLYwMpypsX0UgF1kn6hjdc9FHljGNMVK3
e+ukUNP20dAjRhB7TXha9ynapjX+qmxCQtpAFHdgbAxfthWRw+12YDkgOhFSQvl0
ZKUf56swqMkI
-----END CERTIFICATE-----
OCSP Request Data:
    Version: 1 (0x0)
    Requestor List:
        Certificate ID:
          Hash Algorithm: sha256
          Issuer Name Hash: 17492942FD74BDD6138B943E0C4E7810FE75C0C31C2AC630481D1E52DDFE8156
          Issuer Key Hash: F475BFE4DED80D615B268FF2479A7CC86EB492BF8758F525EA36EF90FA8FB353
          Serial Number: 02
    Request Extensions:
        OCSP Nonce: 
            04104D29496BC61F102D79405E08230A170A
OCSP Response Data:
    OCSP Response Status: successful (0x0)
    Response Type: Basic OCSP Response
    Version: 1 (0x0)
    Responder Id: CN = Intermediate, OU = Wget, O = gnuwget
    Produced At: Jul 15 09:06:26 2019 GMT
    Responses:
    Certificate ID:
      Hash Algorithm: sha256
      Issuer Name Hash: 17492942FD74BDD6138B943E0C4E7810FE75C0C31C2AC630481D1E52DDFE8156
      Issuer Key Hash: F475BFE4DED80D615B268FF2479A7CC86EB492BF8758F525EA36EF90FA8FB353
      Serial Number: 02
    Cert Status: unknown
    This Update: Jul 15 09:06:26 2019 GMT

    Response Extensions:
        OCSP Nonce: 
            04104D29496BC61F102D79405E08230A170A
    Signature Algorithm: sha256WithRSAEncryption
         56:b0:93:fd:09:e9:4c:64:4e:02:e7:60:3c:54:98:ab:0a:7c:
         ef:2d:b8:73:9c:46:93:50:4e:15:35:3c:70:5e:17:69:82:28:
         66:b5:3e:40:83:3f:01:22:bb:ce:05:c9:14:d7:4c:98:56:cb:
         31:4e:1b:e7:8a:bb:f0:d0:5a:36:be:34:8b:ea:6f:ea:12:72:
         1f:8a:a7:3c:fc:47:6b:05:a6:44:ec:5b:4e:ae:ed:12:54:5f:
         9d:a2:37:4d:2b:40:92:ed:fd:4e:e3:f6:65:01:48:cc:10:77:
         7e:5c:59:34:2d:23:e7:a7:41:50:73:17:d0:6e:9b:ef:c9:c1:
         72:bd:56:70:1f:af:3c:c1:b7:82:f2:e8:fc:18:d2:0c:4e:42:
         0a:3c:84:5c:a6:28:a4:c7:bf:32:43:38:e8:79:06:c2:d6:9f:
         17:f0:4b:07:94:77:34:23:3c:07:90:ca:e4:34:c7:f8:04:52:
         0f:2f:e2:60:6e:08:9c:de:29:3a:63:f8:5c:e6:2b:07:a8:e0:
         b8:77:fe:4c:44:6c:fa:1a:0d:0d:dd:a7:7b:a8:fa:b6:b6:29:
         88:55:05:7d:b7:db:02:73:ea:3b:5d:d5:7a:86:94:08:89:9a:
         ec:87:e3:05:dc:c3:c7:f5:0c:57:90:97:87:a8:d7:a4:58:88:
         30:af:e7:85:dd:5f:5d:94:36:ce:03:0b:14:4d:43:b3:5b:bb:
         00:6c:8d:00:a7:3f:f5:e5:6d:ba:33:20:5e:d9:0a:2d:bb:e1:
         ff:d0:5c:36:20:62:7f:cc:d9:84:10:6e:bf:d2:d5:17:88:6a:
         a1:de:f8:95:fb:5f:49:7b:ed:7f:71:74:74:b6:7a:d7:63:a8:
         36:01:8a:71:29:68:5f:1a:7e:30:75:7b:6e:a3:4d:2a:e7:ab:
         28:f0:49:51:81:b1:80:53:b1:c3:7e:40:63:0d:5b:fb:af:0d:
         68:ef:ae:fe:89:e2:5c:97:af:4f:c3:50:de:f9:d0:6c:07:8c:
         ff:ef:f0:4c:ba:77
Certificate:
    Data:
        Version: 3 (0x2)
        Serial Number: 6713811337613073197 (0x5d2c3fd71b6adb2d)
        Signature Algorithm: sha256WithRSAEncryption
        Issuer: CN=root, OU=Wget, O=gnuwget
        Validity
            Not Before: Jul 15 08:56:57 2019 GMT
            Not After : Dec 31 23:59:59 9999 GMT
        Subject: CN=Intermediate, OU=Wget, O=gnuwget
        Subject Public Key Info:
            Public Key Algorithm: rsaEncryption
                RSA Public-Key: (3072 bit)
                Modulus:
                    00:9d:9f:fb:99:01:3c:62:ce:80:4b:68:b6:6c:87:
                    37:09:6b:25:50:01:b1:38:af:7d:45:68:0e:aa:35:
                    b4:5e:ff:95:74:79:a2:5c:04:35:97:80:38:bd:6b:
                    d9:9c:b3:94:45:18:1f:cf:61:bd:3f:85:41:04:b5:
                    d3:20:d8:0e:27:ea:d5:ea:76:5a:9d:81:3b:8b:b6:
                    37:d2:f9:cb:6b:db:01:62:c6:50:f2:e4:74:a5:99:
                    46:ce:e9:79:66:73:5f:c3:95:7d:66:2b:9f:83:c7:
                    88:92:41:12:92:bf:2f:81:88:07:6c:8e:fb:6c:41:
                    ee:7b:4f:64:74:25:38:2f:eb:bb:4c:8f:3d:1b:69:
                    05:e4:3f:b1:52:d3:04:e9:a8:17:3b:ef:13:61:46:
                    a3:9a:89:84:3d:6d:49:7b:a1:35:63:cf:e2:34:7a:
                    25:d1:0c:66:f7:84:5e:86:0f:55:13:49:fa:11:e1:
                    c8:b7:1c:b7:a7:ef:9d:d8:b8:a5:5b:01:91:df:17:
                    3e:5a:9e:18:33:b2:0e:90:60:7a:3e:1e:0e:90:98:
                    66:cb:f8:f1:9f:05:53:68:df:9d:6e:2a:0f:d2:2a:
                    33:e0:09:c5:b9:4e:97:b1:7d:08:55:dd:c3:19:e6:
                    31:a6:db:2a:cd:18:d0:22:02:0b:5b:39:c8:57:2b:
                    d0:bf:45:ff:c2:fa:13:2a:64:d0:42:a0:e9:9a:16:
                    d1:1a:9e:ce:57:bb:6a:23:2d:1f:e4:5e:f5:4c:86:
                    6b:dc:12:7c:fc:ff:29:ad:6e:6d:2f:8a:2b:bb:8a:
                    02:d7:5d:14:7e:46:fa:51:4b:dd:9f:1a:0c:6f:3e:
                    63:78:7c:a5:81:ea:f5:a1:30:de:3f:3e:3d:da:39:
                    52:db:3a:9c:09:7e:b6:5c:db:2c:25:a2:63:a3:f3:
                    e7:c5:dc:aa:79:c5:e1:1f:d9:8e:ac:74:fd:28:13:
                    01:d2:48:cf:70:6a:d7:ee:d7:2c:50:cf:19:a8:ff:
                    3c:23:4d:8b:b6:aa:83:03:28:a7
                Exponent: 65537 (0x10001)
        X509v3 extensions:
            X509v3 Basic Constraints: critical
                CA:TRUE
            X509v3 Extended Key Usage: 
                Time Stamping, OCSP Signing, OCSP Signing, Time Stamping
            X509v3 Key Usage: critical
                Certificate Sign, CRL Sign
            X509v3 Subject Key Identifier: 
                C0:7F:29:1F:82:B1:AA:85:38:5F:75:0B:9B:16:22:9E:13:D2:3B:63
            X509v3 Authority Key Identifier: 
                keyid:49:F6:38:A3:B9:BB:3C:72:29:40:52:EE:A6:8A:60:B8:8F:EB:B4:48

    Signature Algorithm: sha256WithRSAEncryption
         5c:1f:11:66:dd:47:bf:53:82:e8:7f:14:08:ae:cb:09:95:71:
         5b:22:a1:2c:7a:95:af:7a:01:76:6d:da:3a:3d:1b:84:03:27:
         ca:89:b8:1f:64:ae:77:78:93:e6:da:8c:35:18:12:7b:35:76:
         b5:98:f4:0b:9f:08:dd:45:98:f8:44:59:64:4a:7c:56:77:7f:
         b7:9b:9e:7c:6d:22:12:3e:c3:67:82:c5:d1:46:9f:08:34:7d:
         3c:14:ca:59:ae:2c:27:71:4e:19:7f:5a:bb:eb:ab:b1:27:15:
         f1:60:c0:33:3b:0f:a6:df:f1:54:02:6c:9c:22:c6:7e:6d:b4:
         fc:6a:71:7c:e3:00:52:6a:a2:90:ed:5d:d4:96:d9:7a:db:dc:
         8d:e6:f7:14:29:7c:cf:9b:42:88:1a:75:93:3a:3e:ed:7b:d6:
         f6:7e:d4:21:a5:d6:f2:6a:97:95:cd:2e:37:48:49:24:2d:80:
         78:f4:72:f4:9f:fa:71:ba:a7:8f:fb:aa:16:24:f4:a2:a4:d9:
         34:65:00:8f:c5:ee:93:58:6a:00:cf:35:9c:51:14:c6:59:bd:
         9b:3c:22:c3:a1:c2:e4:0e:5d:e4:67:e6:d3:62:97:19:1a:75:
         a9:ca:55:ed:ef:96:aa:d0:8d:98:1f:d5:51:93:c9:a6:d0:9e:
         5e:c1:d9:91:15:53:6c:cf:13:37:2b:2e:1d:23:52:db:db:05:
         0a:e3:42:3e:a4:2d:64:f0:89:c3:12:10:f4:7d:be:a2:c4:6f:
         5b:42:01:11:0e:83:70:80:10:e5:41:91:b2:6d:97:2d:8c:0c:
         a7:2a:6c:5f:45:20:17:59:27:ea:18:dd:73:d1:47:96:31:8d:
         31:52:b7:7b:eb:a4:50:d3:f6:d1:d0:23:46:10:7b:4d:78:5a:
         f7:29:da:a6:35:fe:aa:6c:42:42:da:40:14:77:60:6c:0c:5f:
         b6:15:91:c3:ed:76:60:39:20:3a:11:52:42:f9:74:64:a5:1f:
         e7:ab:30:a8:c9:08
-----BEGIN CERTIFICATE-----
MIIEhTCCAu2gAwIBAgIIXSw/1xtq2y0wDQYJKoZIhvcNAQELBQAwMDENMAsGA1UE
AxMEcm9vdDENMAsGA1UECxMEV2dldDEQMA4GA1UEChMHZ251d2dldDAgFw0xOTA3
MTUwODU2NTdaGA85OTk5MTIzMTIzNTk1OVowODEVMBMGA1UEAxMMSW50ZXJtZWRp
YXRlMQ0wCwYDVQQLEwRXZ2V0MRAwDgYDVQQKEwdnbnV3Z2V0MIIBojANBgkqhkiG
9w0BAQEFAAOCAY8AMIIBigKCAYEAnZ/7mQE8Ys6AS2i2bIc3CWslUAGxOK99RWgO
qjW0Xv+VdHmiXAQ1l4A4vWvZnLOURRgfz2G9P4VBBLXTINgOJ+rV6nZanYE7i7Y3
0vnLa9sBYsZQ8uR0pZlGzul5ZnNfw5V9Ziufg8eIkkESkr8vgYgHbI77bEHue09k
dCU4L+u7TI89G2kF5D+xUtME6agXO+8TYUajmomEPW1Je6E1Y8/iNHol0Qxm94Re
hg9VE0n6EeHItxy3p++d2LilWwGR3xc+Wp4YM7IOkGB6Ph4OkJhmy/jxnwVTaN+d
bioP0ioz4AnFuU6XsX0IVd3DGeYxptsqzRjQIgILWznIVyvQv0X/wvoTKmTQQqDp
mhbRGp7OV7tqIy0f5F71TIZr3BJ8/P8prW5tL4oru4oC110Ufkb6UUvdnxoMbz5j
eHylger1oTDePz492jlS2zqcCX62XNssJaJjo/PnxdyqecXhH9mOrHT9KBMB0kjP
cGrX7tcsUM8ZqP88I02LtqqDAyinAgMBAAGjgZgwgZUwDwYDVR0TAQH/BAUwAwEB
/zAxBgNVHSUEKjAoBggrBgEFBQcDCAYIKwYBBQUHAwkGCCsGAQUFBwMJBggrBgEF
BQcDCDAPBgNVHQ8BAf8EBQMDBwYAMB0GA1UdDgQWBBTAfykfgrGqhThfdQubFiKe
E9I7YzAfBgNVHSMEGDAWgBRJ9jijubs8cilAUu6mimC4j+u0SDANBgkqhkiG9w0B
AQsFAAOCAYEAXB8RZt1Hv1OC6H8UCK7LCZVxWyKhLHqVr3oBdm3aOj0bhAMnyom4
H2Sud3iT5tqMNRgSezV2tZj0C58I3UWY+ERZZEp8Vnd/t5uefG0iEj7DZ4LF0Uaf
CDR9PBTKWa4sJ3FOGX9au+ursScV8WDAMzsPpt/xVAJsnCLGfm20/GpxfOMAUmqi
kO1d1JbZetvcjeb3FCl8z5tCiBp1kzo+7XvW9n7UIaX