OCSP Request Data:
    Version: 1 (0x0)
    Requestor List:
        Certificate ID:
          Hash Algorithm: sha256
          Issuer Name Hash: 17492942FD74BDD6138B943E0C4E7810FE75C0C31C2AC630481D1E52DDFE8156
          Issuer Key Hash: C27F62DAF5D76F766F2C120F96C1F41858B5F3231DC8A7C9FC64810D0FC1503E
          Serial Number: 01
    Request Extensions:
        OCSP Nonce: 
            04103F5B43B57CD77268F10E26667DF8AC0E
OCSP Response Data:
    OCSP Response Status: successful (0x0)
    Response Type: Basic OCSP Response
    Version: 1 (0x0)
    Responder Id: CN = Intermediate, OU = Wget, O = gnuwget
    Produced At: Jul 15 10:12:34 2019 GMT
    Responses:
    Certificate ID:
      Hash Algorithm: sha256
      Issuer Name Hash: 17492942FD74BDD6138B943E0C4E7810FE75C0C31C2AC630481D1E52DDFE8156
      Issuer Key Hash: C27F62DAF5D76F766F2C120F96C1F41858B5F3231DC8A7C9FC64810D0FC1503E
      Serial Number: 01
    Cert Status: good
    This Update: Jul 15 10:12:34 2019 GMT

    Response Extensions:
        OCSP Nonce: 
            04103F5B43B57CD77268F10E26667DF8AC0E
    Signature Algorithm: sha256WithRSAEncryption
         9d:44:88:e2:f7:77:c0:87:6a:14:df:0c:29:b4:65:16:5e:60:
         8a:01:da:46:11:7e:8b:a7:24:e5:25:e6:c5:77:30:1c:46:08:
         89:a0:20:7c:b4:4f:b6:cd:49:54:db:0e:93:28:48:97:1f:e4:
         74:29:d0:17:cd:03:d5:c3:c5:4c:42:92:cb:e9:d5:1a:34:71:
         57:99:a3:25:b4:6f:4b:ef:d7:a3:fd:37:29:f7:3a:a5:51:51:
         03:6a:5b:cd:f0:70:d9:da:90:2b:50:ec:e2:aa:c8:28:83:b5:
         a5:1c:eb:5e:e0:ff:91:fd:2b:f8:98:e1:e4:53:5c:31:2d:c3:
         fa:56:4a:b6:4c:67:c1:18:84:7a:af:47:a8:4c:f1:7f:f4:11:
         fd:42:24:eb:33:97:fe:a1:91:d0:01:92:cf:d3:bf:ae:cb:96:
         d4:33:ad:09:a5:be:3a:cc:4a:26:9a:c9:d1:d7:68:ba:bb:9a:
         f1:30:bf:67:7f:e6:af:9b:95:f0:71:5b:7c:ec:3d:0f:76:45:
         c9:ee:cf:3b:c7:7c:b8:0a:a1:36:30:8e:81:37:b8:e8:df:81:
         7b:4f:aa:9c:ab:a9:9b:e1:ee:c6:5a:9c:c7:93:be:f1:22:89:
         76:ef:3a:3f:4d:cd:79:cf:26:72:43:70:7a:5d:6a:8a:48:20:
         ee:34:b1:9d:5e:60:ee:c8:ec:3b:04:62:26:ed:a5:0e:b8:7a:
         09:32:5f:45:f5:e1:cf:cb:5f:7d:d4:b9:01:01:38:f4:78:38:
         35:79:b9:19:9a:59:aa:dd:9e:d9:36:5e:73:4e:31:ff:63:4c:
         e7:42:5f:58:c1:ab:14:ed:4b:7e:65:e8:b1:29:a7:be:a0:99:
         4d:63:1f:17:7c:e3:af:1d:55:5a:06:fd:0e:f5:94:f6:94:8f:
         dc:3f:e2:6b:73:06:6c:44:df:7d:34:1b:01:10:52:1c:72:a1:
         e5:e7:82:8a:b3:95:3a:0d:fa:f1:82:f2:ce:e0:4e:73:f3:6b:
         af:2a:06:2e:2b:fc
Certificate:
    Data:
        Version: 3 (0x2)
        Serial Number: 6713828599384895417 (0x5d2c4f8a2d31efb9)
        Signature Algorithm: sha256WithRSAEncryption
        Issuer: CN=root, OU=Wget, O=gnuwget
        Validity
            Not Before: Jul 15 10:03:55 2019 GMT
            Not After : Dec 31 23:59:59 9999 GMT
        Subject: CN=Intermediate, OU=Wget, O=gnuwget
        Subject Public Key Info:
            Public Key Algorithm: rsaEncryption
                RSA Public-Key: (3072 bit)
                Modulus:
                    00:cd:b1:4a:44:29:5d:0f:7e:58:cf:88:84:c3:fa:
                    b8:02:79:f3:dd:71:c7:a7:8c:ea:0e:e3:c0:b3:d7:
                    9c:c4:6f:b0:a6:d4:e7:c0:e8:02:a1:70:05:37:de:
                    1b:79:cd:20:5e:ce:3e:f1:ae:bb:45:da:84:29:70:
                    6a:cf:9d:36:3f:62:a0:43:db:5e:6c:cc:22:bd:77:
                    1f:67:e5:1c:a6:1f:41:4b:fc:a5:a5:f9:22:ef:9c:
                    ff:65:38:ff:5c:4b:17:d2:f4:28:ff:58:fa:ad:0a:
                    7f:a9:d3:93:1a:04:84:d5:60:9f:5b:45:64:41:d6:
                    96:69:27:03:02:ae:60:d1:d8:25:e0:de:49:ba:11:
                    93:b2:39:dc:3e:c2:1c:16:87:45:44:e1:53:0d:8e:
                    c0:2e:e6:5a:b2:3b:da:20:a0:36:aa:dd:a3:4b:6a:
                    40:df:79:2e:f9:85:ef:d1:1a:01:8b:2a:ee:f4:4d:
                    e1:50:30:e8:1c:5a:f2:d0:01:64:39:04:a3:8a:9b:
                    07:b7:2a:33:b3:05:f1:a1:89:b2:73:d4:08:1f:8f:
                    69:ec:6b:9d:4b:c8:16:82:7f:83:01:99:a2:cb:a9:
                    66:8c:2c:32:61:c6:a6:95:60:be:1b:af:ac:bc:a6:
                    d3:c9:81:90:5a:a3:cb:19:22:4f:a0:0b:ff:66:d6:
                    a9:51:00:d5:99:bf:b8:5c:7d:2a:28:49:25:df:9b:
                    ac:26:f9:57:5d:c1:e8:06:3c:0c:85:8a:a9:86:c6:
                    73:fa:f7:40:8a:0c:88:67:a9:e5:9b:59:86:c7:d9:
                    52:e7:7e:57:7d:00:5f:67:bf:57:45:24:69:5b:17:
                    96:e9:da:ab:74:60:d3:71:e1:83:01:13:8c:63:87:
                    2c:ac:9f:3d:85:cc:fb:3b:1d:ef:39:b1:50:4c:11:
                    45:b9:5b:ef:c8:5c:54:b7:8c:58:18:78:4f:16:c3:
                    98:46:92:73:2d:bf:6d:53:f0:f6:62:f1:96:e9:11:
                    6e:69:80:62:4d:ea:0d:7c:39:85
                Exponent: 65537 (0x10001)
        X509v3 extensions:
            X509v3 Basic Constraints: critical
                CA:TRUE
            X509v3 Extended Key Usage: 
                Time Stamping, OCSP Signing, OCSP Signing, Time Stamping
            X509v3 Key Usage: critical
                Certificate Sign, CRL Sign
            X509v3 Subject Key Identifier: 
                59:07:89:E0:57:69:BC:15:1E:4F:DA:CD:44:A0:1D:A9:A8:E5:E4:14
            X509v3 Authority Key Identifier: 
                keyid:60:2B:55:A0:F2:34:1A:0B:41:8A:F1:95:0E:AA:B3:57:A6:5B:84:55

    Signature Algorithm: sha256WithRSAEncryption
         8c:a3:ea:46:f8:24:ca:81:f4:8a:c4:e6:ed:b4:11:b7:a7:a9:
         21:08:b7:31:19:39:55:72:30:68:c5:d5:fa:4d:9b:9d:e8:71:
         e5:53:0d:c3:8c:5c:ba:37:55:12:29:de:01:fe:16:c9:ff:42:
         2d:f3:ff:28:b3:19:37:e2:0d:b3:ed:8b:ce:86:0e:d4:b5:19:
         d8:26:3b:74:1f:63:d8:e6:d1:cc:a3:a3:ab:8f:77:0e:b4:28:
         bc:6a:aa:b2:b7:0a:df:54:d3:31:b1:bd:58:d9:35:f8:f1:a3:
         df:d8:6f:79:7d:d9:b3:69:5d:53:90:92:75:94:83:7e:ca:23:
         42:53:c3:60:ca:b7:33:07:5c:85:bd:c6:28:71:38:77:5d:88:
         90:7e:02:54:8d:24:ea:09:0a:3a:17:7e:ab:8a:35:86:94:88:
         47:f8:c3:9d:9f:4e:55:18:23:71:34:6b:59:43:0d:05:98:9a:
         14:93:25:f8:2a:44:41:45:6b:32:52:61:2b:16:99:a3:c8:70:
         ac:ab:07:bb:1b:15:4e:33:87:67:8a:e4:c3:ea:ab:cf:ee:4a:
         dc:05:d7:91:2e:3b:20:82:ba:ca:c9:b0:95:13:90:a9:c4:39:
         a7:f5:f0:36:47:73:00:8c:a1:1f:d7:5f:39:29:84:e0:eb:8f:
         f3:c5:03:54:db:e4:27:85:37:7f:28:79:9e:f1:2c:9d:e9:08:
         80:12:b4:27:11:89:31:61:3b:e5:96:de:c8:1c:92:64:fa:ca:
         a9:aa:34:c9:94:e9:2a:26:97:a5:40:ee:f6:0d:25:e3:ab:f9:
         3c:2a:27:3b:1b:ce:e0:14:64:71:b8:39:3d:01:5c:02:31:f9:
         b6:9b:57:32:f8:b8:21:25:10:3d:1b:47:15:48:a5:4c:b7:77:
         0b:f4:d3:22:e6:0a:ba:9a:e7:83:ce:cb:a8:78:2b:ea:49:94:
         6f:1f:83:65:bb:63:80:fa:a4:34:ce:79:6f:2a:cb:59:a1:bd:
         ff:94:0f:7b:9a:92
-----BEGIN CERTIFICATE-----
MIIEhTCCAu2gAwIBAgIIXSxPii0x77kwDQYJKoZIhvcNAQELBQAwMDENMAsGA1UE
AxMEcm9vdDENMAsGA1UECxMEV2dldDEQMA4GA1UEChMHZ251d2dldDAgFw0xOTA3
MTUxMDAzNTVaGA85OTk5MTIzMTIzNTk1OVowODEVMBMGA1UEAxMMSW50ZXJtZWRp
YXRlMQ0wCwYDVQQLEwRXZ2V0MRAwDgYDVQQKEwdnbnV3Z2V0MIIBojANBgkqhkiG
9w0BAQEFAAOCAY8AMIIBigKCAYEAzbFKRCldD35Yz4iEw/q4Annz3XHHp4zqDuPA
s9ecxG+wptTnwOgCoXAFN94bec0gXs4+8a67RdqEKXBqz502P2KgQ9tebMwivXcf
Z+Ucph9BS/ylpfki75z/ZTj/XEsX0vQo/1j6rQp/qdOTGgSE1WCfW0VkQdaWaScD
Aq5g0dgl4N5JuhGTsjncPsIcFodFROFTDY7ALuZasjvaIKA2qt2jS2pA33ku+YXv
0RoBiyru9E3hUDDoHFry0AFkOQSjipsHtyozswXxoYmyc9QIH49p7GudS8gWgn+D
AZmiy6lmjCwyYcamlWC+G6+svKbTyYGQWqPLGSJPoAv/ZtapUQDVmb+4XH0qKEkl
35usJvlXXcHoBjwMhYqphsZz+vdAigyIZ6nlm1mGx9lS535XfQBfZ79XRSRpWxeW
6dqrdGDTceGDAROMY4csrJ89hcz7Ox3vObFQTBFFuVvvyFxUt4xYGHhPFsOYRpJz
Lb9tU/D2YvGW6RFuaYBiTeoNfDmFAgMBAAGjgZgwgZUwDwYDVR0TAQH/BAUwAwEB
/zAxBgNVHSUEKjAoBggrBgEFBQcDCAYIKwYBBQUHAwkGCCsGAQUFBwMJBggrBgEF
BQcDCDAPBgNVHQ8BAf8EBQMDBwYAMB0GA1UdDgQWBBRZB4ngV2m8FR5P2s1EoB2p
qOXkFDAfBgNVHSMEGDAWgBRgK1Wg8jQaC0GK8ZUOqrNXpluEVTANBgkqhkiG9w0B
AQsFAAOCAYEAjKPqRvgkyoH0isTm7bQRt6epIQi3MRk5VXIwaMXV+k2bnehx5VMN
w4xcujdVEineAf4Wyf9CLfP/KLMZN+INs+2LzoYO1LUZ2CY7dB9j2ObRzKOjq493
DrQovGqqsrcK31TTMbG9WNk1+PGj39hveX3Zs2ldU5CSdZSDfsojQlPDYMq3Mwdc
hb3GKHE4d12IkH4CVI0k6gkKOhd+q4o1hpSIR/jDnZ9OVRgjcTRrWUMNBZiaFJMl
+CpEQUVrMlJhKxaZo8hwrKsHuxsVTjOHZ4rkw+qrz+5K3AXXkS47IIK6ysmwlROQ
qcQ5p/XwNkdzAIyhH9dfOSmE4OuP88UDVNvkJ4U3fyh5nvEsnekIgBK0JxGJMWE7
5ZbeyBySZP