Certificate Request:
    Data:
        Version: 1 (0x0)
        Subject: C=IN, ST=State, L=City, O=gnuwget, OU=Wget, CN=localhost/emailAddress=end@localhost
        Subject Public Key Info:
            Public Key Algorithm: rsaEncryption
                RSA Public-Key: (2048 bit)
                Modulus:
                    00:a2:5d:9c:19:5d:42:87:f8:e1:a7:91:c4:d7:e8:
                    03:19:6a:30:69:1e:e7:38:9c:f7:9f:26:6e:5a:1e:
                    56:4a:94:3e:7a:bc:71:1a:bd:56:f6:4a:55:8b:33:
                    62:25:d6:6c:f9:78:ca:15:72:49:8b:4f:45:1a:e6:
                    ed:53:a9:f1:dd:7c:d8:a8:78:f3:c1:fa:ee:04:8d:
                    01:35:f9:aa:2c:3b:5c:a4:36:42:ad:8d:0c:ac:00:
                    27:73:92:d3:60:be:8a:97:54:c6:dd:4b:47:56:5f:
                    14:81:79:24:6b:70:c6:5c:e2:17:3f:8a:81:42:fd:
                    67:be:af:8f:d3:bc:9d:6a:6c:c7:f0:2c:d3:d8:1a:
                    79:eb:17:25:6f:57:30:b8:db:df:dc:13:22:3d:23:
                    0e:e4:d7:01:60:01:2d:ff:db:f2:de:4d:ac:18:88:
                    be:85:5c:4c:05:62:22:92:75:69:47:c7:df:26:bb:
                    a9:0e:fa:51:1a:df:a3:69:e2:00:8c:08:ec:d6:9d:
                    ef:02:37:4f:6c:36:4e:b4:fb:30:3e:8a:45:cd:5c:
                    bf:e7:0b:d8:ea:99:8c:82:a9:8c:ea:bc:e5:d7:76:
                    be:46:32:e7:2e:ea:cf:72:e0:d3:81:0f:9b:5b:9c:
                    88:4d:ec:c1:b7:fa:68:4c:44:ac:6f:27:ba:85:e9:
                    d1:91
                Exponent: 65537 (0x10001)
        Attributes:
            a0:00
    Signature Algorithm: sha256WithRSAEncryption
         07:9e:86:f5:1c:79:05:3e:35:16:43:c9:c2:78:20:a1:6d:2c:
         12:49:85:29:13:e2:e6:fb:d1:e3:92:59:af:70:91:73:34:ca:
         a2:4e:b2:f4:1c:bd:6c:27:ce:fc:cd:83:d8:13:45:82:2b:eb:
         c4:f0:2a:c8:4a:15:03:47:69:ea:cb:d5:08:62:d9:dc:ea:80:
         f6:ba:c3:91:96:5c:b7:39:bc:d8:c8:a3:a7:56:0f:ce:ca:9b:
         4a:c7:b2:d8:b7:a0:10:39:52:51:60:07:52:02:68:d1:99:12:
         83:50:ca:b6:03:8e:3b:a6:cb:2f:7c:0a:d8:c7:0d:1c:8b:94:
         d1:c2:6f:12:34:ad:b8:87:1d:09:02:05:1a:e4:4c:65:83:81:
         e6:96:95:07:c7:49:fe:59:2c:55:1a:fa:05:8f:ca:7d:99:1f:
         3c:6a:8e:71:f8:5e:01:79:1a:52:0f:b1:e3:45:a2:ff:f4:67:
         7a:11:b6:86:b1:43:dd:9a:67:5f:63:82:d4:cf:ae:e2:1e:b1:
         1e:9a:36:9a:76:12:60:d4:76:67:d7:dd:6e:a5:f9:36:50:c3:
         3a:c8:93:b8:5e:a4:62:6d:48:df:77:09:04:0e:d2:47:2a:e7:
         93:96:d6:4c:bb:e1:9f:b3:73:8c:ef:20:ad:71:2e:e2:c5:21:
         83:17:cc:76
-----BEGIN CERTIFICATE REQUEST-----
MIICxDCCAawCAQAwfzELMAkGA1UEBhMCSU4xDjAMBgNVBAgMBVN0YXRlMQ0wCwYD
VQQHDARDaXR5MRAwDgYDVQQKDAdnbnV3Z2V0MQ0wCwYDVQQLDARXZ2V0MRIwEAYD
VQQDDAlsb2NhbGhvc3QxHDAaBgkqhkiG9w0BCQEWDWVuZEBsb2NhbGhvc3QwggEi
MA0GCSqGSIb3DQEBAQUAA4IBDwAwggEKAoIBAQCiXZwZXUKH+OGnkcTX6AMZajBp
Huc4nPefJm5aHlZKlD56vHEavVb2SlWLM2Il1mz5eMoVckmLT0Ua5u1TqfHdfNio
ePPB+u4EjQE1+aosO1ykNkKtjQysACdzktNgvoqXVMbdS0dWXxSBeSRrcMZc4hc/
ioFC/We+r4/TvJ1qbMfwLNPYGnnrFyVvVzC429/cEyI9Iw7k1wFgAS3/2/LeTawY
iL6FXEwFYiKSdWlHx98mu6kO+lEa36Np4gCMCOzWne8CN09sNk60+zA+ikXNXL/n
C9jqmYyCqYzqvOXXdr5GMucu6s9y4NOBD5tbnIhN7MG3+mhMRKxvJ7qF6dGRAgMB
AAGgADANBgkqhkiG9w0BAQsFAAOCAQEAB56G9Rx5BT41FkPJwnggoW0sEkmFKRPi
5vvR45JZr3CRczTKok6y9By9bCfO/M2D2BNFgivrxPAqyEoVA0dp6svVCGLZ3OqA
9rrDkZZctzm82Mijp1YPzsqbSsey2LegEDlSUWAHUgJo0ZkSg1DKtgOOO6bLL3wK
2McNHIuU0cJvEjStuIcdCQIFGuRMZYOB5paVB8dJ/lksVRr6BY/KfZkfPGqOcfhe
AXkaUg+x40Wi//RnehG2hrFD3ZpnX2OC1M+u4h6xHpo2mnYSYNR2Z9fdbqX5NlDD
OsiTuF6kYm1I33cJBA7SRyrnk5bWTLvhn7NzjO8grXEu4sUhgxfMdg==
-----END CERTIFICATE REQUEST-----
