Certificate:
    Data:
        Version: 3 (0x2)
        Serial Number: 4 (0x4)
        Signature Algorithm: sha256WithRSAEncryption
        Issuer: CN=Interm, OU=Wget, O=ojhaarjun1
        Validity
            Not Before: Jul 14 10:14:17 2019 GMT
            Not After : Jun 20 10:14:17 2119 GMT
        Subject: C=IN, ST=Nowhere, L=Baker Street, O=Wget, OU=ojhaarjun1, CN=localhost
        Subject Public Key Info:
            Public Key Algorithm: rsaEncryption
                RSA Public-Key: (2048 bit)
                Modulus:
                    00:cc:30:88:41:33:8f:2d:16:06:0c:fe:b0:5b:e8:
                    78:fb:17:11:91:a9:a3:2f:58:68:b6:dc:89:56:c9:
                    63:03:4f:a5:99:84:f1:30:78:88:13:48:88:1a:8e:
                    a7:b7:96:46:f1:92:7b:15:68:00:80:9f:cb:9b:98:
                    74:db:61:ed:bc:ee:9d:46:c6:71:91:46:86:69:ce:
                    e4:6a:6f:57:b7:7e:99:32:5a:ac:a8:ed:dd:1a:dc:
                    e5:f6:25:43:8d:7a:54:c3:d0:12:65:7f:5b:b1:37:
                    ba:13:e3:c4:be:6b:f0:cf:7d:57:d9:c9:57:8a:24:
                    24:e4:84:8a:b8:77:8f:c2:6c:4a:ee:bc:a3:f0:be:
                    eb:0f:76:c2:f2:66:6b:63:af:ab:59:e9:91:3f:b9:
                    cd:25:cb:f0:f8:50:14:b4:39:e4:0c:0e:47:25:05:
                    2c:02:e6:b3:c9:6e:08:ab:93:62:6f:1a:b8:69:e4:
                    50:50:dd:22:d6:96:34:3d:f9:43:69:68:37:37:e9:
                    52:44:70:e8:75:d4:61:b4:be:cb:61:c7:a4:7b:3e:
                    1e:77:3b:60:a0:5c:82:fc:05:3b:22:a3:30:a2:92:
                    16:26:4f:ab:e2:46:6f:93:71:1a:67:4b:34:e8:1a:
                    6d:b0:e2:5d:c9:5f:7c:ff:44:ee:2a:a5:63:47:20:
                    c9:07
                Exponent: 65537 (0x10001)
        X509v3 extensions:
            X509v3 Basic Constraints: 
                CA:FALSE
            Netscape Comment: 
                OpenSSL Generated Certificate
            X509v3 Subject Key Identifier: 
                A9:AC:DA:0C:C8:01:D2:85:97:EE:81:C9:B0:C9:48:D5:6C:40:83:7B
            X509v3 Authority Key Identifier: 
                keyid:46:05:47:71:63:37:19:1D:08:DD:C6:74:37:46:88:BC:7E:28:F3:2B

    Signature Algorithm: sha256WithRSAEncryption
         ab:e2:7f:1e:ce:8f:7b:d0:89:13:d2:9d:b0:2f:61:fe:30:47:
         b6:1e:88:a3:f4:38:7d:a7:d6:17:ac:32:ec:fa:d8:8d:38:79:
         2f:eb:00:3f:b4:05:65:ef:3f:d2:ce:b4:b9:75:8a:a3:cd:bb:
         f5:3e:a5:05:fa:e5:37:1a:22:45:e6:ee:35:a7:1f:a4:43:97:
         a5:b4:bd:ce:a6:18:87:e4:8e:01:1e:dc:a1:4d:c5:89:27:86:
         0d:97:c3:22:ea:d4:41:bc:e7:1d:c2:f3:11:fb:78:61:b4:cd:
         f5:17:61:7c:25:59:80:20:af:1a:ad:0e:15:8e:fe:de:f8:cf:
         54:ef:91:d7:ef:a8:85:04:a6:4c:5a:0d:2e:25:24:a6:e4:92:
         d4:62:55:7d:68:66:18:94:2f:d7:3d:2b:b6:2d:59:f3:0c:e4:
         90:71:ca:00:85:6d:86:a0:cb:1a:3d:a0:c3:ab:96:41:0a:17:
         23:64:fe:f2:c2:81:fa:dc:ec:0a:45:23:80:7f:a0:c2:d4:07:
         3d:23:c2:f9:81:2e:e9:47:be:c5:04:c2:a4:09:ed:8b:c3:b3:
         2c:d8:df:4c:74:c8:0b:0a:9c:b7:90:88:ed:ff:c4:22:60:a2:
         9b:ab:e2:f1:2a:eb:52:f3:a4:d4:ad:df:32:f8:6e:c0:7e:23:
         be:9b:99:3b:96:74:b6:cd:20:b3:3d:63:da:e1:6c:d1:16:e6:
         fe:c3:20:a1:87:27:56:8a:81:2f:7c:ea:20:3a:b7:f9:51:2c:
         2e:f0:db:d9:c5:a5:f7:4b:42:80:5e:b9:9c:3a:61:d1:b2:ff:
         72:43:c6:76:59:d0:b6:64:4f:93:01:bf:52:9f:8c:73:f8:a0:
         92:22:b2:75:dc:aa:19:2b:02:9f:78:b6:e8:61:e8:8d:5e:e9:
         0a:f4:06:c8:07:fa:3b:90:83:60:bd:d3:8c:6f:f9:49:76:6e:
         28:b0:d3:cc:5a:4e:b6:49:3a:79:bc:31:13:08:de:24:7a:04:
         87:a1:f4:23:62:1c
-----BEGIN CERTIFICATE-----
MIIEGzCCAoOgAwIBAgIBBDANBgkqhkiG9w0BAQsFADA1MQ8wDQYDVQQDEwZJbnRl
cm0xDTALBgNVBAsTBFdnZXQxEzARBgNVBAoTCm9qaGFhcmp1bjEwIBcNMTkwNzE0
MTAxNDE3WhgPMjExOTA2MjAxMDE0MTdaMG4xCzAJBgNVBAYTAklOMRAwDgYDVQQI
DAdOb3doZXJlMRUwEwYDVQQHDAxCYWtlciBTdHJlZXQxDTALBgNVBAoMBFdnZXQx
EzARBgNVBAsMCm9qaGFhcmp1bjExEjAQBgNVBAMMCWxvY2FsaG9zdDCCASIwDQYJ
KoZIhvcNAQEBBQADggEPADCCAQoCggEBAMwwiEEzjy0WBgz+sFvoePsXEZGpoy9Y
aLbciVbJYwNPpZmE8TB4iBNIiBqOp7eWRvGSexVoAICfy5uYdNth7bzunUbGcZFG
hmnO5GpvV7d+mTJarKjt3Rrc5fYlQ416VMPQEmV/W7E3uhPjxL5r8M99V9nJV4ok
JOSEirh3j8JsSu68o/C+6w92wvJma2Ovq1npkT+5zSXL8PhQFLQ55AwORyUFLALm
s8luCKuTYm8auGnkUFDdItaWND35Q2loNzfpUkRw6HXUYbS+y2HHpHs+Hnc7YKBc
gvwFOyKjMKKSFiZPq+JGb5NxGmdLNOgabbDiXclffP9E7iqlY0cgyQcCAwEAAaN7
MHkwCQYDVR0TBAIwADAsBglghkgBhvhCAQ0EHxYdT3BlblNTTCBHZW5lcmF0ZWQg
Q2VydGlmaWNhdGUwHQYDVR0OBBYEFKms2gzIAdKFl+6BybDJSNVsQIN7MB8GA1Ud
IwQYMBaAFEYFR3FjNxkdCN3GdDdGiLx+KPMrMA0GCSqGSIb3DQEBCwUAA4IBgQCr
4n8ezo970IkT0p2wL2H+MEe2Hoij9Dh9p9YXrDLs+tiNOHkv6wA/tAVl7z/SzrS5
dYqjzbv1PqUF+uU3GiJF5u41px+kQ5eltL3OphiH5I4BHtyhTcWJJ4YNl8Mi6tRB
vOcdwvMR+3hhtM31F2F8JVmAIK8arQ4Vjv7e+M9U75HX76iFBKZMWg0uJSSm5JLU
YlV9aGYYlC/XPSu2LVnzDOSQccoAhW2GoMsaPaDDq5ZBChcjZP7ywoH63OwKRSOA
f6DC1Ac9I8L5gS7pR77FBMKkCe2Lw7Ms2N9MdMgLCpy3kIjt/8QiYKKbq+LxKutS
86TUrd8y+G7AfiO+m5k7lnS2zSCzPWPa4WzRFub+wyChhydWioEvfOogOrf5USwu
8NvZxaX3S0KAXrmcOmHRsv9yQ8Z2WdC2ZE+TAb9Sn4xz+KCSIrJ13KoZKwKfeLbo
YeiNXukK9AbIB/o7kINgvdOMb/lJdm4osNPMWk62STp5vDETCN4kegSHofQjYhw=
-----END CERTIFICATE-----
